; Function Attrs: nounwind uwtable
define void @Abc_NtkIvyCuts(ptr noundef %0, i32 noundef %1) local_unnamed_addr #0 {
  %3 = tail call ptr @Abc_NtkIvyBefore(ptr noundef %0, i32 noundef 1, i32 noundef 0)
  %4 = icmp eq ptr %3, null
  br i1 %4, label %6, label %5

5:                                                ; preds = %2
  tail call void @Ivy_CutComputeAll(ptr noundef nonnull %3, i32 noundef %1) #15
  tail call void @Ivy_ManStop(ptr noundef nonnull %3) #15
  br label %6

6:                                                ; preds = %2, %5
  ret void
}